target datalayout = "e-m:e-p270:32:32-p271:32:32-p272:64:64-i64:64-i128:128-f80:128-n8:16:32:64-S128"
target triple = "x86_64-unknown-linux-gnu"

%struct.iovec = type { ptr, i64 }
%struct.QEMUIOVector = type { ptr, i32, %union.anon }
%union.anon = type { %struct.anon }
%struct.anon = type { i32, %struct.iovec }
%struct.anon.0 = type { [12 x i8], i64 }

; Function Attrs: nounwind sspstrong uwtable
define dso_local void @qemu_iovec_init_external(ptr noundef %qiov, ptr noundef %iov, i32 noundef %niov) #0 {
entry:
  %qiov.addr = alloca ptr, align 8
  %iov.addr = alloca ptr, align 8
  %niov.addr = alloca i32, align 4
  %i = alloca i32, align 4
  store ptr %qiov, ptr %qiov.addr, align 8
  store ptr %iov, ptr %iov.addr, align 8
  store i32 %niov, ptr %niov.addr, align 4
  %0 = load ptr, ptr %iov.addr, align 8
  %1 = load ptr, ptr %qiov.addr, align 8
  %iov1 = getelementptr inbounds %struct.QEMUIOVector, ptr %1, i32 0, i32 0
  store ptr %0, ptr %iov1, align 8
  %2 = load i32, ptr %niov.addr, align 4
  %3 = load ptr, ptr %qiov.addr, align 8
  %niov2 = getelementptr inbounds %struct.QEMUIOVector, ptr %3, i32 0, i32 1
  store i32 %2, ptr %niov2, align 8
  %4 = load ptr, ptr %qiov.addr, align 8
  %5 = getelementptr inbounds %struct.QEMUIOVector, ptr %4, i32 0, i32 2
  %nalloc = getelementptr inbounds %struct.anon, ptr %5, i32 0, i32 0
  store i32 -1, ptr %nalloc, align 8
  %6 = load ptr, ptr %qiov.addr, align 8
  %7 = getelementptr inbounds %struct.QEMUIOVector, ptr %6, i32 0, i32 2
  %size = getelementptr inbounds %struct.anon.0, ptr %7, i32 0, i32 1
  store i64 0, ptr %size, align 8
  store i32 0, ptr %i, align 4
  br label %for.cond

for.cond:                                         ; preds = %for.inc, %entry
  %8 = load i32, ptr %i, align 4
  %9 = load i32, ptr %niov.addr, align 4
  %cmp = icmp slt i32 %8, %9
  br i1 %cmp, label %for.body, label %for.end

for.body:                                         ; preds = %for.cond
  %10 = load ptr, ptr %iov.addr, align 8
  %11 = load i32, ptr %i, align 4
  %idxprom = sext i32 %11 to i64
  %arrayidx = getelementptr %struct.iovec, ptr %10, i64 %idxprom
  %iov_len = getelementptr inbounds %struct.iovec, ptr %arrayidx, i32 0, i32 1
  %12 = load i64, ptr %iov_len, align 8
  %13 = load ptr, ptr %qiov.addr, align 8
  %14 = getelementptr inbounds %struct.QEMUIOVector, ptr %13, i32 0, i32 2
  %size3 = getelementptr inbounds %struct.anon.0, ptr %14, i32 0, i32 1
  %15 = load i64, ptr %size3, align 8
  %add = add i64 %15, %12
  store i64 %add, ptr %size3, align 8
  br label %for.inc

for.inc:                                          ; preds = %for.body
  %16 = load i32, ptr %i, align 4
  %inc = add i32 %16, 1
  store i32 %inc, ptr %i, align 4
  br label %for.cond, !llvm.loop !16

for.end:                                          ; preds = %for.cond
  ret void
}