; Function Attrs: nofree norecurse nosync nounwind sspstrong memory(argmem: readwrite) uwtable
define dso_local void @qemu_iovec_init_external(ptr noundef writeonly captures(none) initializes((0, 12), (16, 20), (32, 40)) %qiov, ptr noundef %iov, i32 noundef %niov) local_unnamed_addr #9 {
entry:
  store ptr %iov, ptr %qiov, align 8
  %niov2 = getelementptr inbounds nuw i8, ptr %qiov, i64 8
  store i32 %niov, ptr %niov2, align 8
  %0 = getelementptr inbounds nuw i8, ptr %qiov, i64 16
  store i32 -1, ptr %0, align 8
  %size = getelementptr inbounds nuw i8, ptr %qiov, i64 32
  store i64 0, ptr %size, align 8
  %cmp9 = icmp sgt i32 %niov, 0
  br i1 %cmp9, label %for.body.lr.ph, label %for.end

for.body.lr.ph:                                   ; preds = %entry
  %wide.trip.count = zext nneg i32 %niov to i64
  br label %for.body

for.body:                                         ; preds = %for.body.lr.ph, %for.body
  %indvars.iv = phi i64 [ 0, %for.body.lr.ph ], [ %indvars.iv.next, %for.body ]
  %1 = phi i64 [ 0, %for.body.lr.ph ], [ %add, %for.body ]
  %iov_len = getelementptr %struct.iovec, ptr %iov, i64 %indvars.iv, i32 1
  %2 = load i64, ptr %iov_len, align 8
  %add = add i64 %1, %2
  store i64 %add, ptr %size, align 8
  %indvars.iv.next = add nuw nsw i64 %indvars.iv, 1
  %exitcond.not = icmp eq i64 %indvars.iv.next, %wide.trip.count
  br i1 %exitcond.not, label %for.end, label %for.body, !llvm.loop !16

for.end:                                          ; preds = %for.body, %entry
  ret void
}